target datalayout = "e-m:e-p270:32:32-p271:32:32-p272:64:64-i64:64-i128:128-f80:128-n8:16:32:64-S128"
target triple = "x86_64-unknown-linux-gnu"

%class.b2Shape = type { ptr, i32, float }
%class.b2CircleShape = type { %class.b2Shape, %struct.b2Vec2 }
%struct.b2Vec2 = type { float, float }
%struct.b2MassData = type { float, %struct.b2Vec2, float }

; Function Attrs: mustprogress nounwind uwtable
define linkonce_odr hidden noundef float @_Z5b2DotRK6b2Vec2S1_(ptr noundef nonnull align 4 dereferenceable(8) %a, ptr noundef nonnull align 4 dereferenceable(8) %b) #2 comdat {
entry:
  %a.addr = alloca ptr, align 8
  %b.addr = alloca ptr, align 8
  store ptr %a, ptr %a.addr, align 8
  store ptr %b, ptr %b.addr, align 8
  %0 = load ptr, ptr %a.addr, align 8
  %x = getelementptr inbounds %struct.b2Vec2, ptr %0, i32 0, i32 0
  %1 = load float, ptr %x, align 4
  %2 = load ptr, ptr %b.addr, align 8
  %x1 = getelementptr inbounds %struct.b2Vec2, ptr %2, i32 0, i32 0
  %3 = load float, ptr %x1, align 4
  %4 = load ptr, ptr %a.addr, align 8
  %y = getelementptr inbounds %struct.b2Vec2, ptr %4, i32 0, i32 1
  %5 = load float, ptr %y, align 4
  %6 = load ptr, ptr %b.addr, align 8
  %y2 = getelementptr inbounds %struct.b2Vec2, ptr %6, i32 0, i32 1
  %7 = load float, ptr %y2, align 4
  %mul3 = fmul float %5, %7
  %8 = call float @llvm.fmuladd.f32(float %1, float %3, float %mul3)
  ret float %8
}

; Function Attrs: mustprogress uwtable
define void @_ZNK13b2CircleShape11ComputeMassEP10b2MassDataf(ptr noundef nonnull align 8 dereferenceable(24) %this, ptr noundef %massData, float noundef %density) unnamed_addr #0 align 2 {
entry:
  %this.addr = alloca ptr, align 8
  %massData.addr = alloca ptr, align 8
  %density.addr = alloca float, align 4
  store ptr %this, ptr %this.addr, align 8
  store ptr %massData, ptr %massData.addr, align 8
  store float %density, ptr %density.addr, align 4
  %this1 = load ptr, ptr %this.addr, align 8
  %0 = load float, ptr %density.addr, align 4
  %mul = fmul float %0, 0x400921FB60000000
  %m_radius = getelementptr inbounds %class.b2Shape, ptr %this1, i32 0, i32 2
  %1 = load float, ptr %m_radius, align 4
  %mul2 = fmul float %mul, %1
  %m_radius3 = getelementptr inbounds %class.b2Shape, ptr %this1, i32 0, i32 2
  %2 = load float, ptr %m_radius3, align 4
  %mul4 = fmul float %mul2, %2
  %3 = load ptr, ptr %massData.addr, align 8
  %mass = getelementptr inbounds %struct.b2MassData, ptr %3, i32 0, i32 0
  store float %mul4, ptr %mass, align 4
  %m_p = getelementptr inbounds %class.b2CircleShape, ptr %this1, i32 0, i32 1
  %4 = load ptr, ptr %massData.addr, align 8
  %center = getelementptr inbounds %struct.b2MassData, ptr %4, i32 0, i32 1
  call void @llvm.memcpy.p0.p0.i64(ptr align 4 %center, ptr align 8 %m_p, i64 8, i1 false)
  %5 = load ptr, ptr %massData.addr, align 8
  %mass5 = getelementptr inbounds %struct.b2MassData, ptr %5, i32 0, i32 0
  %6 = load float, ptr %mass5, align 4
  %m_radius6 = getelementptr inbounds %class.b2Shape, ptr %this1, i32 0, i32 2
  %7 = load float, ptr %m_radius6, align 4
  %mul7 = fmul float 5.000000e-01, %7
  %m_radius8 = getelementptr inbounds %class.b2Shape, ptr %this1, i32 0, i32 2
  %8 = load float, ptr %m_radius8, align 4
  %m_p10 = getelementptr inbounds %class.b2CircleShape, ptr %this1, i32 0, i32 1
  %m_p11 = getelementptr inbounds %class.b2CircleShape, ptr %this1, i32 0, i32 1
  %call = call noundef float @_Z5b2DotRK6b2Vec2S1_(ptr noundef nonnull align 4 dereferenceable(8) %m_p10, ptr noundef nonnull align 4 dereferenceable(8) %m_p11)
  %9 = call float @llvm.fmuladd.f32(float %mul7, float %8, float %call)
  %mul12 = fmul float %6, %9
  %10 = load ptr, ptr %massData.addr, align 8
  %I = getelementptr inbounds %struct.b2MassData, ptr %10, i32 0, i32 2
  store float %mul12, ptr %I, align 4
  ret void
}