; Function Attrs: mustprogress nofree norecurse nosync nounwind willreturn memory(argmem: readwrite) uwtable
define void @_ZNK13b2CircleShape11ComputeMassEP10b2MassDataf(ptr nocapture noundef nonnull readonly align 8 dereferenceable(24) %this, ptr nocapture noundef writeonly %massData, float noundef %density) unnamed_addr #8 align 2 {
entry:
  %mul = fmul float %density, 0x400921FB60000000
  %m_radius = getelementptr inbounds i8, ptr %this, i64 12
  %0 = load float, ptr %m_radius, align 4
  %mul2 = fmul float %mul, %0
  %mul4 = fmul float %0, %mul2
  store float %mul4, ptr %massData, align 4
  %m_p = getelementptr inbounds i8, ptr %this, i64 16
  %center = getelementptr inbounds i8, ptr %massData, i64 4
  %1 = load i64, ptr %m_p, align 8
  store i64 %1, ptr %center, align 4
  %2 = load float, ptr %m_radius, align 4
  %mul7 = fmul float %2, 5.000000e-01
  %3 = load float, ptr %m_p, align 8
  %y.i = getelementptr inbounds i8, ptr %this, i64 20
  %4 = load float, ptr %y.i, align 4
  %mul3.i = fmul float %4, %4
  %5 = tail call noundef float @llvm.fmuladd.f32(float %3, float %3, float %mul3.i)
  %6 = tail call float @llvm.fmuladd.f32(float %mul7, float %2, float %5)
  %mul12 = fmul float %mul4, %6
  %I = getelementptr inbounds i8, ptr %massData, i64 12
  store float %mul12, ptr %I, align 4
  ret void
}